target datalayout = "e-m:e-p270:32:32-p271:32:32-p272:64:64-i64:64-i128:128-f80:128-n8:16:32:64-S128"
target triple = "x86_64-pc-linux-gnu"

%struct.UCMTable = type { ptr, i32, i32, ptr, i32, i32, ptr, i32, i32, ptr, i8, i8, i8 }
%struct.UCMStates = type { [128 x [256 x i32]], [128 x i32], [128 x i32], i32, i32, i32, i32, i8, i8 }
%struct.UCMFile = type { ptr, ptr, %struct.UCMStates, [60 x i8] }

; Function Attrs: mustprogress uwtable
define void @ucm_closeTable(ptr noundef %0) #0 {
  %2 = alloca ptr, align 8
  store ptr %0, ptr %2, align 8, !tbaa !3
  %3 = load ptr, ptr %2, align 8, !tbaa !3
  %4 = icmp ne ptr %3, null
  br i1 %4, label %5, label %19

5:                                                ; preds = %1
  %6 = load ptr, ptr %2, align 8, !tbaa !3
  %7 = getelementptr inbounds nuw %struct.UCMTable, ptr %6, i32 0, i32 0
  %8 = load ptr, ptr %7, align 8, !tbaa !30
  call void @uprv_free_77(ptr noundef %8)
  %9 = load ptr, ptr %2, align 8, !tbaa !3
  %10 = getelementptr inbounds nuw %struct.UCMTable, ptr %9, i32 0, i32 3
  %11 = load ptr, ptr %10, align 8, !tbaa !15
  call void @uprv_free_77(ptr noundef %11)
  %12 = load ptr, ptr %2, align 8, !tbaa !3
  %13 = getelementptr inbounds nuw %struct.UCMTable, ptr %12, i32 0, i32 6
  %14 = load ptr, ptr %13, align 8, !tbaa !21
  call void @uprv_free_77(ptr noundef %14)
  %15 = load ptr, ptr %2, align 8, !tbaa !3
  %16 = getelementptr inbounds nuw %struct.UCMTable, ptr %15, i32 0, i32 9
  %17 = load ptr, ptr %16, align 8, !tbaa !33
  call void @uprv_free_77(ptr noundef %17)
  %18 = load ptr, ptr %2, align 8, !tbaa !3
  call void @uprv_free_77(ptr noundef %18)
  br label %19

19:                                               ; preds = %5, %1
  ret void
}

; Function Attrs: mustprogress uwtable
define void @ucm_close(ptr noundef %0) #0 {
  %2 = alloca ptr, align 8
  store ptr %0, ptr %2, align 8, !tbaa !64
  %3 = load ptr, ptr %2, align 8, !tbaa !64
  %4 = icmp ne ptr %3, null
  br i1 %4, label %5, label %13

5:                                                ; preds = %1
  %6 = load ptr, ptr %2, align 8, !tbaa !64
  %7 = getelementptr inbounds nuw %struct.UCMFile, ptr %6, i32 0, i32 0
  %8 = load ptr, ptr %7, align 8, !tbaa !66
  call void @ucm_closeTable(ptr noundef %8)
  %9 = load ptr, ptr %2, align 8, !tbaa !64
  %10 = getelementptr inbounds nuw %struct.UCMFile, ptr %9, i32 0, i32 1
  %11 = load ptr, ptr %10, align 8, !tbaa !69
  call void @ucm_closeTable(ptr noundef %11)
  %12 = load ptr, ptr %2, align 8, !tbaa !64
  call void @uprv_free_77(ptr noundef %12)
  br label %13

13:                                               ; preds = %5, %1
  ret void
}