; Function Attrs: mustprogress uwtable
define void @ucm_close(ptr noundef %0) local_unnamed_addr #2 {
  %.not = icmp eq ptr %0, null
  br i1 %.not, label %22, label %2

2:                                                ; preds = %1
  %3 = load ptr, ptr %0, align 8, !tbaa !58
  %.not.i = icmp eq ptr %3, null
  br i1 %.not.i, label %ucm_closeTable.exit, label %4

4:                                                ; preds = %2
  %5 = load ptr, ptr %3, align 8, !tbaa !23
  tail call void @uprv_free_77(ptr noundef %5)
  %6 = getelementptr inbounds nuw i8, ptr %3, i64 16
  %7 = load ptr, ptr %6, align 8, !tbaa !8
  tail call void @uprv_free_77(ptr noundef %7)
  %8 = getelementptr inbounds nuw i8, ptr %3, i64 32
  %9 = load ptr, ptr %8, align 8, !tbaa !16
  tail call void @uprv_free_77(ptr noundef %9)
  %10 = getelementptr inbounds nuw i8, ptr %3, i64 48
  %11 = load ptr, ptr %10, align 8, !tbaa !26
  tail call void @uprv_free_77(ptr noundef %11)
  tail call void @uprv_free_77(ptr noundef nonnull %3)
  br label %ucm_closeTable.exit

ucm_closeTable.exit:                              ; preds = %2, %4
  %12 = getelementptr inbounds nuw i8, ptr %0, i64 8
  %13 = load ptr, ptr %12, align 8, !tbaa !63
  %.not.i4 = icmp eq ptr %13, null
  br i1 %.not.i4, label %ucm_closeTable.exit5, label %14

14:                                               ; preds = %ucm_closeTable.exit
  %15 = load ptr, ptr %13, align 8, !tbaa !23
  tail call void @uprv_free_77(ptr noundef %15)
  %16 = getelementptr inbounds nuw i8, ptr %13, i64 16
  %17 = load ptr, ptr %16, align 8, !tbaa !8
  tail call void @uprv_free_77(ptr noundef %17)
  %18 = getelementptr inbounds nuw i8, ptr %13, i64 32
  %19 = load ptr, ptr %18, align 8, !tbaa !16
  tail call void @uprv_free_77(ptr noundef %19)
  %20 = getelementptr inbounds nuw i8, ptr %13, i64 48
  %21 = load ptr, ptr %20, align 8, !tbaa !26
  tail call void @uprv_free_77(ptr noundef %21)
  tail call void @uprv_free_77(ptr noundef nonnull %13)
  br label %ucm_closeTable.exit5

ucm_closeTable.exit5:                             ; preds = %ucm_closeTable.exit, %14
  tail call void @uprv_free_77(ptr noundef nonnull %0)
  br label %22

22:                                               ; preds = %ucm_closeTable.exit5, %1
  ret void
}